#include <math.h>
#include <stdio.h>
#include <stdlib.h>
#include <string.h>

int main(int argc, char* argv[])
{
	int n,i,sum=0;
	scanf("%d",&n);
	for(i=1;i<=n;i++)
	{
		if(i%7!=0&&(i-7)%10!=0)
		{
			if(i>=70&&i/10!=7)
				sum+=i*i;
			else if(i<70)
				sum+=i*i;
		}
	}
    printf("%d",sum);
	return 0;
}
