; ModuleID = '30/3307.c'
source_filename = "30/3307.c"
target datalayout = "e-m:e-p270:32:32-p271:32:32-p272:64:64-i64:64-f80:128-n8:16:32:64-S128"
target triple = "x86_64-pc-linux-gnu"

@.str = private unnamed_addr constant [3 x i8] c"%d\00", align 1

; Function Attrs: noinline nounwind uwtable
define dso_local i32 @main(i32 %0, i8** %1) #0 {
  %3 = alloca i32, align 4
  %4 = alloca i32, align 4
  %5 = alloca i8**, align 8
  %6 = alloca i32, align 4
  %7 = alloca i32, align 4
  %8 = alloca i32, align 4
  store i32 0, i32* %3, align 4
  store i32 %0, i32* %4, align 4
  store i8** %1, i8*** %5, align 8
  store i32 0, i32* %8, align 4
  %9 = call i32 (i8*, ...) @__isoc99_scanf(i8* getelementptr inbounds ([3 x i8], [3 x i8]* @.str, i64 0, i64 0), i32* %6)
  store i32 1, i32* %7, align 4
  br label %10

10:                                               ; preds = %48, %2
  %11 = load i32, i32* %7, align 4
  %12 = load i32, i32* %6, align 4
  %13 = icmp sle i32 %11, %12
  br i1 %13, label %14, label %51

14:                                               ; preds = %10
  %15 = load i32, i32* %7, align 4
  %16 = srem i32 %15, 7
  %17 = icmp ne i32 %16, 0
  br i1 %17, label %18, label %47

18:                                               ; preds = %14
  %19 = load i32, i32* %7, align 4
  %20 = sub nsw i32 %19, 7
  %21 = srem i32 %20, 10
  %22 = icmp ne i32 %21, 0
  br i1 %22, label %23, label %47

23:                                               ; preds = %18
  %24 = load i32, i32* %7, align 4
  %25 = icmp sge i32 %24, 70
  br i1 %25, label %26, label %36

26:                                               ; preds = %23
  %27 = load i32, i32* %7, align 4
  %28 = sdiv i32 %27, 10
  %29 = icmp ne i32 %28, 7
  br i1 %29, label %30, label %36

30:                                               ; preds = %26
  %31 = load i32, i32* %7, align 4
  %32 = load i32, i32* %7, align 4
  %33 = mul nsw i32 %31, %32
  %34 = load i32, i32* %8, align 4
  %35 = add nsw i32 %34, %33
  store i32 %35, i32* %8, align 4
  br label %46

36:                                               ; preds = %26, %23
  %37 = load i32, i32* %7, align 4
  %38 = icmp slt i32 %37, 70
  br i1 %38, label %39, label %45

39:                                               ; preds = %36
  %40 = load i32, i32* %7, align 4
  %41 = load i32, i32* %7, align 4
  %42 = mul nsw i32 %40, %41
  %43 = load i32, i32* %8, align 4
  %44 = add nsw i32 %43, %42
  store i32 %44, i32* %8, align 4
  br label %45

45:                                               ; preds = %39, %36
  br label %46

46:                                               ; preds = %45, %30
  br label %47

47:                                               ; preds = %46, %18, %14
  br label %48

48:                                               ; preds = %47
  %49 = load i32, i32* %7, align 4
  %50 = add nsw i32 %49, 1
  store i32 %50, i32* %7, align 4
  br label %10

51:                                               ; preds = %10
  %52 = load i32, i32* %8, align 4
  %53 = call i32 (i8*, ...) @printf(i8* getelementptr inbounds ([3 x i8], [3 x i8]* @.str, i64 0, i64 0), i32 %52)
  ret i32 0
}

declare dso_local i32 @__isoc99_scanf(i8*, ...) #1

declare dso_local i32 @printf(i8*, ...) #1


!llvm.module.flags = !{!0}
!llvm.ident = !{!1}

!0 = !{i32 1, !"wchar_size", i32 4}
!1 = !{!"clang version 10.0.0-4ubuntu1 "}
