; ModuleID = 'source-C-CXX/29/3307.c'
source_filename = "source-C-CXX/29/3307.c"
target datalayout = "e-m:e-p270:32:32-p271:32:32-p272:64:64-i64:64-f80:128-n8:16:32:64-S128"
target triple = "x86_64-pc-linux-gnu"

@.str = private unnamed_addr constant [3 x i8] c"%d\00", align 1

; Function Attrs: nofree nounwind sspstrong uwtable
define dso_local i32 @main(i32 %0, i8** nocapture readnone %1) local_unnamed_addr #0 {
  %3 = alloca i32, align 4
  %4 = bitcast i32* %3 to i8*
  call void @llvm.lifetime.start.p0i8(i64 4, i8* nonnull %4) #3
  %5 = call i32 (i8*, ...) @__isoc99_scanf(i8* getelementptr inbounds ([3 x i8], [3 x i8]* @.str, i64 0, i64 0), i32* nonnull %3)
  %6 = load i32, i32* %3, align 4, !tbaa !5
  %7 = icmp slt i32 %6, 1
  br i1 %7, label %33, label %8

8:                                                ; preds = %2, %29
  %9 = phi i32 [ %30, %29 ], [ 0, %2 ]
  %10 = phi i32 [ %31, %29 ], [ 1, %2 ]
  %11 = urem i32 %10, 7
  %12 = icmp eq i32 %11, 0
  br i1 %12, label %29, label %13

13:                                               ; preds = %8
  %14 = add nsw i32 %10, -7
  %15 = srem i32 %14, 10
  %16 = icmp eq i32 %15, 0
  br i1 %16, label %29, label %17

17:                                               ; preds = %13
  %18 = icmp ult i32 %10, 70
  %19 = add nsw i32 %10, -70
  %20 = icmp ult i32 %19, 10
  %21 = select i1 %18, i1 true, i1 %20
  br i1 %21, label %25, label %22

22:                                               ; preds = %17
  %23 = mul nsw i32 %10, %10
  %24 = add nsw i32 %9, %23
  br label %29

25:                                               ; preds = %17
  br i1 %18, label %26, label %29

26:                                               ; preds = %25
  %27 = mul nuw nsw i32 %10, %10
  %28 = add nsw i32 %9, %27
  br label %29

29:                                               ; preds = %8, %13, %25, %26, %22
  %30 = phi i32 [ %24, %22 ], [ %28, %26 ], [ %9, %25 ], [ %9, %13 ], [ %9, %8 ]
  %31 = add nuw i32 %10, 1
  %32 = icmp eq i32 %10, %6
  br i1 %32, label %33, label %8, !llvm.loop !9

33:                                               ; preds = %29, %2
  %34 = phi i32 [ 0, %2 ], [ %30, %29 ]
  %35 = call i32 (i8*, ...) @printf(i8* nonnull dereferenceable(1) getelementptr inbounds ([3 x i8], [3 x i8]* @.str, i64 0, i64 0), i32 %34)
  call void @llvm.lifetime.end.p0i8(i64 4, i8* nonnull %4) #3
  ret i32 0
}

; Function Attrs: argmemonly mustprogress nofree nosync nounwind willreturn
declare void @llvm.lifetime.start.p0i8(i64 immarg, i8* nocapture) #1

; Function Attrs: nofree nounwind
declare noundef i32 @__isoc99_scanf(i8* nocapture noundef readonly, ...) local_unnamed_addr #2

; Function Attrs: nofree nounwind
declare noundef i32 @printf(i8* nocapture noundef readonly, ...) local_unnamed_addr #2

; Function Attrs: argmemonly mustprogress nofree nosync nounwind willreturn
declare void @llvm.lifetime.end.p0i8(i64 immarg, i8* nocapture) #1


!llvm.module.flags = !{!0, !1, !2, !3}
!llvm.ident = !{!4}

!0 = !{i32 1, !"wchar_size", i32 4}
!1 = !{i32 7, !"PIC Level", i32 2}
!2 = !{i32 7, !"PIE Level", i32 2}
!3 = !{i32 7, !"uwtable", i32 1}
!4 = !{!"clang version 13.0.0"}
!5 = !{!6, !6, i64 0}
!6 = !{!"int", !7, i64 0}
!7 = !{!"omnipotent char", !8, i64 0}
!8 = !{!"Simple C/C++ TBAA"}
!9 = distinct !{!9, !10}
!10 = !{!"llvm.loop.mustprogress"}
